target datalayout = "e-m:e-p270:32:32-p271:32:32-p272:64:64-i64:64-i128:128-f80:128-n8:16:32:64-S128"
target triple = "x86_64-pc-linux-gnu"

%struct.MP = type { i64, [100 x ptr], %union.anon }
%union.anon = type { %struct.MPMAP }
%struct.MPMAP = type { ptr, i64, i64 }

@.str.1 = private unnamed_addr constant [20 x i8] c"Destroying map @%p\0A\00", align 1

; Function Attrs: nounwind uwtable
define internal void @spam(ptr noundef %0, ...) #0 {
  %2 = alloca ptr, align 8
  store ptr %0, ptr %2, align 8
  ret void
}

; Function Attrs: nounwind uwtable
define void @mpool_destroy(ptr noundef %0) #0 {
  %2 = alloca ptr, align 8
  %3 = alloca ptr, align 8
  %4 = alloca ptr, align 8
  %5 = alloca i64, align 8
  store ptr %0, ptr %2, align 8
  %6 = load ptr, ptr %2, align 8
  %7 = getelementptr inbounds %struct.MP, ptr %6, i32 0, i32 2
  %8 = getelementptr inbounds %struct.MPMAP, ptr %7, i32 0, i32 0
  %9 = load ptr, ptr %8, align 8
  store ptr %9, ptr %3, align 8
  %10 = load ptr, ptr %2, align 8
  call void (ptr, ...) @spam(ptr noundef @.str.1, ptr noundef %10)
  br label %11

11:                                               ; preds = %14, %1
  %12 = load ptr, ptr %3, align 8
  store ptr %12, ptr %4, align 8
  %13 = icmp ne ptr %12, null
  br i1 %13, label %14, label %24

14:                                               ; preds = %11
  %15 = load ptr, ptr %4, align 8
  %16 = getelementptr inbounds %struct.MPMAP, ptr %15, i32 0, i32 1
  %17 = load i64, ptr %16, align 8
  store i64 %17, ptr %5, align 8
  %18 = load ptr, ptr %4, align 8
  %19 = getelementptr inbounds %struct.MPMAP, ptr %18, i32 0, i32 0
  %20 = load ptr, ptr %19, align 8
  store ptr %20, ptr %3, align 8
  %21 = load ptr, ptr %4, align 8
  %22 = load i64, ptr %5, align 8
  %23 = call i32 @munmap(ptr noundef %21, i64 noundef %22) #6
  br label %11

24:                                               ; preds = %11
  %25 = load ptr, ptr %2, align 8
  %26 = getelementptr inbounds %struct.MP, ptr %25, i32 0, i32 2
  %27 = getelementptr inbounds %struct.MPMAP, ptr %26, i32 0, i32 1
  %28 = load i64, ptr %27, align 8
  store i64 %28, ptr %5, align 8
  %29 = load ptr, ptr %2, align 8
  %30 = load i64, ptr %5, align 8
  %31 = add i64 %30, 832
  %32 = call i32 @munmap(ptr noundef %29, i64 noundef %31) #6
  ret void
}