; Function Attrs: nounwind uwtable
define void @mpool_destroy(ptr noundef %0) local_unnamed_addr #0 {
  %2 = getelementptr inbounds i8, ptr %0, i64 808
  %3 = load ptr, ptr %2, align 8
  %.not9 = icmp eq ptr %3, null
  br i1 %.not9, label %._crit_edge, label %.lr.ph

.lr.ph:                                           ; preds = %1, %.lr.ph
  %.010 = phi ptr [ %6, %.lr.ph ], [ %3, %1 ]
  %4 = getelementptr inbounds i8, ptr %.010, i64 8
  %5 = load i64, ptr %4, align 8
  %6 = load ptr, ptr %.010, align 8
  %7 = tail call i32 @munmap(ptr noundef nonnull %.010, i64 noundef %5) #10
  %.not = icmp eq ptr %6, null
  br i1 %.not, label %._crit_edge, label %.lr.ph

._crit_edge:                                      ; preds = %.lr.ph, %1
  %8 = getelementptr inbounds i8, ptr %0, i64 816
  %9 = load i64, ptr %8, align 8
  %10 = add i64 %9, 832
  %11 = tail call i32 @munmap(ptr noundef %0, i64 noundef %10) #10
  ret void
}